; Function Attrs: mustprogress uwtable
define void @_ZNK18FilterCameraPlugin10filterInfoEi(ptr dead_on_unwind noalias nocapture writable writeonly sret(%class.QString) align 8 %0, ptr nocapture nonnull readnone align 8 %1, i32 noundef %2) unnamed_addr #9 align 2 {
  switch i32 %2, label %20 [
    i32 0, label %4
    i32 1, label %6
    i32 2, label %8
    i32 3, label %10
    i32 4, label %12
    i32 5, label %14
    i32 6, label %16
    i32 7, label %18
  ]

4:                                                ; preds = %3
  %5 = tail call noundef ptr @_ZN7QString16fromAscii_helperEPKci(ptr noundef nonnull @.str.26, i32 noundef 57)
  br label %22

6:                                                ; preds = %3
  %7 = tail call noundef ptr @_ZN7QString16fromAscii_helperEPKci(ptr noundef nonnull @.str.26, i32 noundef 57)
  br label %22

8:                                                ; preds = %3
  %9 = tail call noundef ptr @_ZN7QString16fromAscii_helperEPKci(ptr noundef nonnull @.str.27, i32 noundef 90)
  br label %22

10:                                               ; preds = %3
  %11 = tail call noundef ptr @_ZN7QString16fromAscii_helperEPKci(ptr noundef nonnull @.str.28, i32 noundef 125)
  br label %22

12:                                               ; preds = %3
  %13 = tail call noundef ptr @_ZN7QString16fromAscii_helperEPKci(ptr noundef nonnull @.str.29, i32 noundef 123)
  br label %22

14:                                               ; preds = %3
  %15 = tail call noundef ptr @_ZN7QString16fromAscii_helperEPKci(ptr noundef nonnull @.str.30, i32 noundef 56)
  br label %22

16:                                               ; preds = %3
  %17 = tail call noundef ptr @_ZN7QString16fromAscii_helperEPKci(ptr noundef nonnull @.str.31, i32 noundef 67)
  br label %22

18:                                               ; preds = %3
  %19 = tail call noundef ptr @_ZN7QString16fromAscii_helperEPKci(ptr noundef nonnull @.str.32, i32 noundef 183)
  br label %22

20:                                               ; preds = %3
  %21 = tail call noundef ptr @_ZN7QString16fromAscii_helperEPKci(ptr noundef null, i32 noundef -1)
  br label %22

22:                                               ; preds = %20, %18, %16, %14, %12, %10, %8, %6, %4
  %.sink = phi ptr [ %21, %20 ], [ %19, %18 ], [ %17, %16 ], [ %15, %14 ], [ %13, %12 ], [ %11, %10 ], [ %9, %8 ], [ %7, %6 ], [ %5, %4 ]
  store ptr %.sink, ptr %0, align 8
  ret void
}